; Function Attrs: mustprogress uwtable
define range(i64 4294967296, 34359738368) i64 @_ZN10open_spiel9dou_dizhu23GetSingleRankHandParamsEi(i32 noundef %0) local_unnamed_addr #4 personality ptr @__gxx_personality_v0 {
switch.lookup:
  %1 = alloca i32, align 4
  %2 = alloca i32, align 4
  %3 = alloca %"class.std::__cxx11::basic_string", align 8
  %4 = alloca i32, align 4
  %5 = tail call noundef i32 @_ZN10open_spiel9dou_dizhu18GetNumCardsPerRankEi(i32 noundef %0)
  %switch.tableidx = add nsw i32 %5, -1
  %6 = sext i32 %switch.tableidx to i64
  %switch.gep = getelementptr inbounds [4 x i32], ptr @switch.table._ZN10open_spiel9dou_dizhu23SearchSingleRankActionsEPSt6vectorIlSaIlEEN4absl7debian24SpanIKiEEi, i64 0, i64 %6
  %switch.load = load i32, ptr %switch.gep, align 4
  store i32 %0, ptr %1, align 4
  store i32 %switch.load, ptr %2, align 4
  %.not = icmp slt i32 %0, %switch.load
  br i1 %.not, label %7, label %11

7:                                                ; preds = %switch.lookup
  store i32 138, ptr %4, align 4
  call void @_ZN10open_spiel8internal11SpielStrCatIJRA144_KcRA2_S2_iS6_RA22_S2_RA8_S2_RA4_S2_RiRA17_S2_SD_EEENSt7__cxx1112basic_stringIcSt11char_traitsIcESaIcEEEDpOT_(ptr dead_on_unwind nonnull writable sret(%"class.std::__cxx11::basic_string") align 8 %3, ptr noundef nonnull align 1 dereferenceable(144) @.str.4, ptr noundef nonnull align 1 dereferenceable(2) @.str.5, ptr noundef nonnull align 4 dereferenceable(4) %4, ptr noundef nonnull align 1 dereferenceable(2) @.str.6, ptr noundef nonnull align 1 dereferenceable(22) @.str.17, ptr noundef nonnull align 1 dereferenceable(8) @.str.18, ptr noundef nonnull align 1 dereferenceable(4) @.str.9, ptr noundef nonnull align 4 dereferenceable(4) %1, ptr noundef nonnull align 1 dereferenceable(17) @.str.19, ptr noundef nonnull align 4 dereferenceable(4) %2)
  invoke void @_ZN10open_spiel15SpielFatalErrorERKNSt7__cxx1112basic_stringIcSt11char_traitsIcESaIcEEE(ptr noundef nonnull align 8 dereferenceable(32) %3) #20
          to label %8 unwind label %9

8:                                                ; preds = %7
  unreachable

9:                                                ; preds = %7
  %10 = landingpad { ptr, i32 }
          cleanup
  call void @_ZNSt7__cxx1112basic_stringIcSt11char_traitsIcESaIcEED1Ev(ptr noundef nonnull align 8 dereferenceable(32) %3) #19
  resume { ptr, i32 } %10

11:                                               ; preds = %switch.lookup
  %12 = sub nsw i32 %0, %switch.load
  %.sroa.2.0.insert.ext = zext nneg i32 %5 to i64
  %.sroa.2.0.insert.shift = shl nuw nsw i64 %.sroa.2.0.insert.ext, 32
  %.sroa.0.0.insert.ext = zext i32 %12 to i64
  %.sroa.0.0.insert.insert = or disjoint i64 %.sroa.2.0.insert.shift, %.sroa.0.0.insert.ext
  ret i64 %.sroa.0.0.insert.insert
}